target datalayout = "e-m:e-p270:32:32-p271:32:32-p272:64:64-i64:64-f80:128-n8:16:32:64-S128"
target triple = "x86_64-pc-linux-gnu"

@.str = private unnamed_addr constant [6 x i8] c"%d %d\00", align 1
@m = common dso_local global i32 0, align 4
@n = common dso_local global i32 0, align 4
@i = common dso_local global i32 0, align 4
@.str.1 = private unnamed_addr constant [3 x i8] c"%d\00", align 1
@str = common dso_local global [1000 x i32] zeroinitializer, align 16
@.str.2 = private unnamed_addr constant [4 x i8] c" %d\00", align 1

; Function Attrs: noinline nounwind uwtable
define dso_local void @get() #0 {
  %1 = call i32 (i8*, ...) @__isoc99_scanf(i8* getelementptr inbounds ([6 x i8], [6 x i8]* @.str, i64 0, i64 0), i32* @m, i32* @n)
  store i32 0, i32* @i, align 4
  br label %2

2:                                                ; preds = %13, %0
  %3 = load i32, i32* @i, align 4
  %4 = load i32, i32* @m, align 4
  %5 = load i32, i32* @n, align 4
  %6 = add nsw i32 %4, %5
  %7 = icmp slt i32 %3, %6
  br i1 %7, label %8, label %16

8:                                                ; preds = %2
  %9 = load i32, i32* @i, align 4
  %10 = sext i32 %9 to i64
  %11 = getelementptr inbounds [1000 x i32], [1000 x i32]* @str, i64 0, i64 %10
  %12 = call i32 (i8*, ...) @__isoc99_scanf(i8* getelementptr inbounds ([3 x i8], [3 x i8]* @.str.1, i64 0, i64 0), i32* %11)
  br label %13

13:                                               ; preds = %8
  %14 = load i32, i32* @i, align 4
  %15 = add nsw i32 %14, 1
  store i32 %15, i32* @i, align 4
  br label %2

16:                                               ; preds = %2
  ret void
}

; Function Attrs: noinline nounwind uwtable
define dso_local void @sort() #0 {
  %1 = alloca i32, align 4
  %2 = alloca i32, align 4
  %3 = alloca i32, align 4
  store i32 0, i32* %1, align 4
  br label %4

4:                                                ; preds = %46, %0
  %5 = load i32, i32* %1, align 4
  %6 = load i32, i32* @m, align 4
  %7 = icmp slt i32 %5, %6
  br i1 %7, label %8, label %49

8:                                                ; preds = %4
  %9 = load i32, i32* %1, align 4
  %10 = add nsw i32 %9, 1
  store i32 %10, i32* %2, align 4
  br label %11

11:                                               ; preds = %42, %8
  %12 = load i32, i32* %2, align 4
  %13 = load i32, i32* @m, align 4
  %14 = icmp slt i32 %12, %13
  br i1 %14, label %15, label %45

15:                                               ; preds = %11
  %16 = load i32, i32* %2, align 4
  %17 = sext i32 %16 to i64
  %18 = getelementptr inbounds [1000 x i32], [1000 x i32]* @str, i64 0, i64 %17
  %19 = load i32, i32* %18, align 4
  %20 = load i32, i32* %1, align 4
  %21 = sext i32 %20 to i64
  %22 = getelementptr inbounds [1000 x i32], [1000 x i32]* @str, i64 0, i64 %21
  %23 = load i32, i32* %22, align 4
  %24 = icmp slt i32 %19, %23
  br i1 %24, label %25, label %41

25:                                               ; preds = %15
  %26 = load i32, i32* %1, align 4
  %27 = sext i32 %26 to i64
  %28 = getelementptr inbounds [1000 x i32], [1000 x i32]* @str, i64 0, i64 %27
  %29 = load i32, i32* %28, align 4
  store i32 %29, i32* %3, align 4
  %30 = load i32, i32* %2, align 4
  %31 = sext i32 %30 to i64
  %32 = getelementptr inbounds [1000 x i32], [1000 x i32]* @str, i64 0, i64 %31
  %33 = load i32, i32* %32, align 4
  %34 = load i32, i32* %1, align 4
  %35 = sext i32 %34 to i64
  %36 = getelementptr inbounds [1000 x i32], [1000 x i32]* @str, i64 0, i64 %35
  store i32 %33, i32* %36, align 4
  %37 = load i32, i32* %3, align 4
  %38 = load i32, i32* %2, align 4
  %39 = sext i32 %38 to i64
  %40 = getelementptr inbounds [1000 x i32], [1000 x i32]* @str, i64 0, i64 %39
  store i32 %37, i32* %40, align 4
  br label %41

41:                                               ; preds = %25, %15
  br label %42

42:                                               ; preds = %41
  %43 = load i32, i32* %2, align 4
  %44 = add nsw i32 %43, 1
  store i32 %44, i32* %2, align 4
  br label %11

45:                                               ; preds = %11
  br label %46

46:                                               ; preds = %45
  %47 = load i32, i32* %1, align 4
  %48 = add nsw i32 %47, 1
  store i32 %48, i32* %1, align 4
  br label %4

49:                                               ; preds = %4
  %50 = load i32, i32* @m, align 4
  store i32 %50, i32* %1, align 4
  br label %51

51:                                               ; preds = %97, %49
  %52 = load i32, i32* %1, align 4
  %53 = load i32, i32* @m, align 4
  %54 = load i32, i32* @n, align 4
  %55 = add nsw i32 %53, %54
  %56 = icmp slt i32 %52, %55
  br i1 %56, label %57, label %100

57:                                               ; preds = %51
  %58 = load i32, i32* %1, align 4
  %59 = add nsw i32 %58, 1
  store i32 %59, i32* %2, align 4
  br label %60

60:                                               ; preds = %93, %57
  %61 = load i32, i32* %2, align 4
  %62 = load i32, i32* @m, align 4
  %63 = load i32, i32* @n, align 4
  %64 = add nsw i32 %62, %63
  %65 = icmp slt i32 %61, %64
  br i1 %65, label %66, label %96

66:                                               ; preds = %60
  %67 = load i32, i32* %2, align 4
  %68 = sext i32 %67 to i64
  %69 = getelementptr inbounds [1000 x i32], [1000 x i32]* @str, i64 0, i64 %68
  %70 = load i32, i32* %69, align 4
  %71 = load i32, i32* %1, align 4
  %72 = sext i32 %71 to i64
  %73 = getelementptr inbounds [1000 x i32], [1000 x i32]* @str, i64 0, i64 %72
  %74 = load i32, i32* %73, align 4
  %75 = icmp slt i32 %70, %74
  br i1 %75, label %76, label %92

76:                                               ; preds = %66
  %77 = load i32, i32* %1, align 4
  %78 = sext i32 %77 to i64
  %79 = getelementptr inbounds [1000 x i32], [1000 x i32]* @str, i64 0, i64 %78
  %80 = load i32, i32* %79, align 4
  store i32 %80, i32* %3, align 4
  %81 = load i32, i32* %2, align 4
  %82 = sext i32 %81 to i64
  %83 = getelementptr inbounds [1000 x i32], [1000 x i32]* @str, i64 0, i64 %82
  %84 = load i32, i32* %83, align 4
  %85 = load i32, i32* %1, align 4
  %86 = sext i32 %85 to i64
  %87 = getelementptr inbounds [1000 x i32], [1000 x i32]* @str, i64 0, i64 %86
  store i32 %84, i32* %87, align 4
  %88 = load i32, i32* %3, align 4
  %89 = load i32, i32* %2, align 4
  %90 = sext i32 %89 to i64
  %91 = getelementptr inbounds [1000 x i32], [1000 x i32]* @str, i64 0, i64 %90
  store i32 %88, i32* %91, align 4
  br label %92

92:                                               ; preds = %76, %66
  br label %93

93:                                               ; preds = %92
  %94 = load i32, i32* %2, align 4
  %95 = add nsw i32 %94, 1
  store i32 %95, i32* %2, align 4
  br label %60

96:                                               ; preds = %60
  br label %97

97:                                               ; preds = %96
  %98 = load i32, i32* %1, align 4
  %99 = add nsw i32 %98, 1
  store i32 %99, i32* %1, align 4
  br label %51

100:                                              ; preds = %51
  ret void
}

; Function Attrs: noinline nounwind uwtable
define dso_local i32 @join() #0 {
  ret i32 0
}

; Function Attrs: noinline nounwind uwtable
define dso_local void @print() #0 {
  %1 = load i32, i32* getelementptr inbounds ([1000 x i32], [1000 x i32]* @str, i64 0, i64 0), align 16
  %2 = call i32 (i8*, ...) @printf(i8* getelementptr inbounds ([3 x i8], [3 x i8]* @.str.1, i64 0, i64 0), i32 %1)
  store i32 1, i32* @i, align 4
  br label %3

3:                                                ; preds = %15, %0
  %4 = load i32, i32* @i, align 4
  %5 = load i32, i32* @m, align 4
  %6 = load i32, i32* @n, align 4
  %7 = add nsw i32 %5, %6
  %8 = icmp slt i32 %4, %7
  br i1 %8, label %9, label %18

9:                                                ; preds = %3
  %10 = load i32, i32* @i, align 4
  %11 = sext i32 %10 to i64
  %12 = getelementptr inbounds [1000 x i32], [1000 x i32]* @str, i64 0, i64 %11
  %13 = load i32, i32* %12, align 4
  %14 = call i32 (i8*, ...) @printf(i8* getelementptr inbounds ([4 x i8], [4 x i8]* @.str.2, i64 0, i64 0), i32 %13)
  br label %15

15:                                               ; preds = %9
  %16 = load i32, i32* @i, align 4
  %17 = add nsw i32 %16, 1
  store i32 %17, i32* @i, align 4
  br label %3

18:                                               ; preds = %3
  ret void
}

; Function Attrs: noinline nounwind uwtable
define dso_local void @main() #0 {
  call void (i32*, ...) bitcast (void ()* @get to void (i32*, ...)*)(i32* getelementptr inbounds ([1000 x i32], [1000 x i32]* @str, i64 0, i64 0))
  call void (i32*, ...) bitcast (void ()* @sort to void (i32*, ...)*)(i32* getelementptr inbounds ([1000 x i32], [1000 x i32]* @str, i64 0, i64 0))
  %1 = call i32 (i32*, ...) bitcast (i32 ()* @join to i32 (i32*, ...)*)(i32* getelementptr inbounds ([1000 x i32], [1000 x i32]* @str, i64 0, i64 0))
  call void (i32*, ...) bitcast (void ()* @print to void (i32*, ...)*)(i32* getelementptr inbounds ([1000 x i32], [1000 x i32]* @str, i64 0, i64 0))
  ret void
}