; Function Attrs: nofree nounwind sspstrong uwtable
define dso_local void @get() local_unnamed_addr #0 {
  %1 = tail call i32 (i8*, ...) @__isoc99_scanf(i8* getelementptr inbounds ([6 x i8], [6 x i8]* @.str, i64 0, i64 0), i32* nonnull @m, i32* nonnull @n)
  store i32 0, i32* @i, align 4, !tbaa !5
  %2 = load i32, i32* @m, align 4, !tbaa !5
  %3 = load i32, i32* @n, align 4, !tbaa !5
  %4 = add nsw i32 %3, %2
  %5 = icmp sgt i32 %4, 0
  br i1 %5, label %6, label %17

6:                                                ; preds = %0, %6
  %7 = phi i32 [ %12, %6 ], [ 0, %0 ]
  %8 = sext i32 %7 to i64
  %9 = getelementptr inbounds [1000 x i32], [1000 x i32]* @str, i64 0, i64 %8
  %10 = tail call i32 (i8*, ...) @__isoc99_scanf(i8* getelementptr inbounds ([3 x i8], [3 x i8]* @.str.1, i64 0, i64 0), i32* nonnull %9)
  %11 = load i32, i32* @i, align 4, !tbaa !5
  %12 = add nsw i32 %11, 1
  store i32 %12, i32* @i, align 4, !tbaa !5
  %13 = load i32, i32* @m, align 4, !tbaa !5
  %14 = load i32, i32* @n, align 4, !tbaa !5
  %15 = add nsw i32 %14, %13
  %16 = icmp slt i32 %12, %15
  br i1 %16, label %6, label %17, !llvm.loop !9

17:                                               ; preds = %6, %0
  ret void
}

; Function Attrs: nofree norecurse nosync nounwind sspstrong uwtable
define dso_local void @sort() local_unnamed_addr #2 {
  %1 = load i32, i32* @m, align 4, !tbaa !5
  %2 = icmp sgt i32 %1, 0
  br i1 %2, label %3, label %10

3:                                                ; preds = %0
  %4 = zext i32 %1 to i64
  %5 = zext i32 %1 to i64
  %6 = add nsw i64 %5, -2
  br label %20

7:                                                ; preds = %39, %96, %20
  %8 = add nuw nsw i64 %22, 1
  %9 = icmp eq i64 %23, %5
  br i1 %9, label %10, label %20, !llvm.loop !11

10:                                               ; preds = %7, %0
  %11 = load i32, i32* @n, align 4, !tbaa !5
  %12 = add i32 %11, %1
  %13 = icmp sgt i32 %11, 0
  br i1 %13, label %14, label %94

14:                                               ; preds = %10
  %15 = add i32 %1, 1
  %16 = sext i32 %15 to i64
  %17 = sext i32 %1 to i64
  %18 = sext i32 %12 to i64
  %19 = add i32 %11, -2
  br label %58

20:                                               ; preds = %3, %7
  %21 = phi i64 [ 0, %3 ], [ %23, %7 ]
  %22 = phi i64 [ 1, %3 ], [ %8, %7 ]
  %23 = add nuw nsw i64 %21, 1
  %24 = getelementptr inbounds [1000 x i32], [1000 x i32]* @str, i64 0, i64 %21
  %25 = icmp ult i64 %23, %4
  br i1 %25, label %26, label %7

26:                                               ; preds = %20
  %27 = xor i64 %21, -1
  %28 = add nsw i64 %27, %5
  %29 = and i64 %28, 1
  %30 = icmp eq i64 %29, 0
  br i1 %30, label %39, label %31

31:                                               ; preds = %26
  %32 = getelementptr inbounds [1000 x i32], [1000 x i32]* @str, i64 0, i64 %22
  %33 = load i32, i32* %32, align 4, !tbaa !5
  %34 = load i32, i32* %24, align 4, !tbaa !5
  %35 = icmp slt i32 %33, %34
  br i1 %35, label %36, label %37

36:                                               ; preds = %31
  store i32 %33, i32* %24, align 4, !tbaa !5
  store i32 %34, i32* %32, align 4, !tbaa !5
  br label %37

37:                                               ; preds = %36, %31
  %38 = add nuw nsw i64 %22, 1
  br label %39

39:                                               ; preds = %37, %26
  %40 = phi i64 [ %38, %37 ], [ %22, %26 ]
  %41 = icmp eq i64 %6, %21
  br i1 %41, label %7, label %42

42:                                               ; preds = %39, %96
  %43 = phi i64 [ %97, %96 ], [ %40, %39 ]
  %44 = getelementptr inbounds [1000 x i32], [1000 x i32]* @str, i64 0, i64 %43
  %45 = load i32, i32* %44, align 4, !tbaa !5
  %46 = load i32, i32* %24, align 4, !tbaa !5
  %47 = icmp slt i32 %45, %46
  br i1 %47, label %48, label %49

48:                                               ; preds = %42
  store i32 %45, i32* %24, align 4, !tbaa !5
  store i32 %46, i32* %44, align 4, !tbaa !5
  br label %49

49:                                               ; preds = %42, %48
  %50 = add nuw nsw i64 %43, 1
  %51 = getelementptr inbounds [1000 x i32], [1000 x i32]* @str, i64 0, i64 %50
  %52 = load i32, i32* %51, align 4, !tbaa !5
  %53 = load i32, i32* %24, align 4, !tbaa !5
  %54 = icmp slt i32 %52, %53
  br i1 %54, label %95, label %96

55:                                               ; preds = %100, %78
  %56 = add nsw i64 %61, 1
  %57 = add i32 %59, 1
  br i1 %64, label %58, label %94, !llvm.loop !12

58:                                               ; preds = %14, %55
  %59 = phi i32 [ 0, %14 ], [ %57, %55 ]
  %60 = phi i64 [ %17, %14 ], [ %62, %55 ]
  %61 = phi i64 [ %16, %14 ], [ %56, %55 ]
  %62 = add nsw i64 %60, 1
  %63 = getelementptr inbounds [1000 x i32], [1000 x i32]* @str, i64 0, i64 %60
  %64 = icmp slt i64 %62, %18
  br i1 %64, label %65, label %94

65:                                               ; preds = %58
  %66 = xor i32 %59, -1
  %67 = add i32 %11, %66
  %68 = and i32 %67, 1
  %69 = icmp eq i32 %68, 0
  br i1 %69, label %78, label %70

70:                                               ; preds = %65
  %71 = getelementptr inbounds [1000 x i32], [1000 x i32]* @str, i64 0, i64 %61
  %72 = load i32, i32* %71, align 4, !tbaa !5
  %73 = load i32, i32* %63, align 4, !tbaa !5
  %74 = icmp slt i32 %72, %73
  br i1 %74, label %75, label %76

75:                                               ; preds = %70
  store i32 %72, i32* %63, align 4, !tbaa !5
  store i32 %73, i32* %71, align 4, !tbaa !5
  br label %76

76:                                               ; preds = %75, %70
  %77 = add nsw i64 %61, 1
  br label %78

78:                                               ; preds = %76, %65
  %79 = phi i64 [ %77, %76 ], [ %61, %65 ]
  %80 = icmp eq i32 %19, %59
  br i1 %80, label %55, label %81

81:                                               ; preds = %78, %100
  %82 = phi i64 [ %101, %100 ], [ %79, %78 ]
  %83 = getelementptr inbounds [1000 x i32], [1000 x i32]* @str, i64 0, i64 %82
  %84 = load i32, i32* %83, align 4, !tbaa !5
  %85 = load i32, i32* %63, align 4, !tbaa !5
  %86 = icmp slt i32 %84, %85
  br i1 %86, label %87, label %88

87:                                               ; preds = %81
  store i32 %84, i32* %63, align 4, !tbaa !5
  store i32 %85, i32* %83, align 4, !tbaa !5
  br label %88

88:                                               ; preds = %81, %87
  %89 = add nsw i64 %82, 1
  %90 = getelementptr inbounds [1000 x i32], [1000 x i32]* @str, i64 0, i64 %89
  %91 = load i32, i32* %90, align 4, !tbaa !5
  %92 = load i32, i32* %63, align 4, !tbaa !5
  %93 = icmp slt i32 %91, %92
  br i1 %93, label %99, label %100

94:                                               ; preds = %55, %58, %10
  ret void

95:                                               ; preds = %49
  store i32 %52, i32* %24, align 4, !tbaa !5
  store i32 %53, i32* %51, align 4, !tbaa !5
  br label %96

96:                                               ; preds = %95, %49
  %97 = add nuw nsw i64 %43, 2
  %98 = icmp eq i64 %97, %5
  br i1 %98, label %7, label %42, !llvm.loop !13

99:                                               ; preds = %88
  store i32 %91, i32* %63, align 4, !tbaa !5
  store i32 %92, i32* %90, align 4, !tbaa !5
  br label %100

100:                                              ; preds = %99, %88
  %101 = add nsw i64 %82, 2
  %102 = trunc i64 %101 to i32
  %103 = icmp eq i32 %12, %102
  br i1 %103, label %55, label %81, !llvm.loop !14
}

; Function Attrs: mustprogress nofree norecurse nosync nounwind readnone sspstrong uwtable willreturn
define dso_local i32 @join() local_unnamed_addr #3 {
  ret i32 0
}

; Function Attrs: nofree nounwind sspstrong uwtable
define dso_local void @print() local_unnamed_addr #0 {
  %1 = load i32, i32* getelementptr inbounds ([1000 x i32], [1000 x i32]* @str, i64 0, i64 0), align 16, !tbaa !5
  %2 = tail call i32 (i8*, ...) @printf(i8* nonnull dereferenceable(1) getelementptr inbounds ([3 x i8], [3 x i8]* @.str.1, i64 0, i64 0), i32 %1)
  store i32 1, i32* @i, align 4, !tbaa !5
  %3 = load i32, i32* @m, align 4, !tbaa !5
  %4 = load i32, i32* @n, align 4, !tbaa !5
  %5 = add nsw i32 %4, %3
  %6 = icmp sgt i32 %5, 1
  br i1 %6, label %7, label %19

7:                                                ; preds = %0, %7
  %8 = phi i32 [ %14, %7 ], [ 1, %0 ]
  %9 = sext i32 %8 to i64
  %10 = getelementptr inbounds [1000 x i32], [1000 x i32]* @str, i64 0, i64 %9
  %11 = load i32, i32* %10, align 4, !tbaa !5
  %12 = tail call i32 (i8*, ...) @printf(i8* nonnull dereferenceable(1) getelementptr inbounds ([4 x i8], [4 x i8]* @.str.2, i64 0, i64 0), i32 %11)
  %13 = load i32, i32* @i, align 4, !tbaa !5
  %14 = add nsw i32 %13, 1
  store i32 %14, i32* @i, align 4, !tbaa !5
  %15 = load i32, i32* @m, align 4, !tbaa !5
  %16 = load i32, i32* @n, align 4, !tbaa !5
  %17 = add nsw i32 %16, %15
  %18 = icmp slt i32 %14, %17
  br i1 %18, label %7, label %19, !llvm.loop !15

19:                                               ; preds = %7, %0
  ret void
}

; Function Attrs: nofree nounwind sspstrong uwtable
define dso_local void @main() local_unnamed_addr #0 {
  %1 = tail call i32 (i8*, ...) @__isoc99_scanf(i8* getelementptr inbounds ([6 x i8], [6 x i8]* @.str, i64 0, i64 0), i32* nonnull @m, i32* nonnull @n) #4
  store i32 0, i32* @i, align 4, !tbaa !5
  %2 = load i32, i32* @m, align 4, !tbaa !5
  %3 = load i32, i32* @n, align 4, !tbaa !5
  %4 = add nsw i32 %3, %2
  %5 = icmp sgt i32 %4, 0
  br i1 %5, label %6, label %17

6:                                                ; preds = %0, %6
  %7 = phi i32 [ %12, %6 ], [ 0, %0 ]
  %8 = sext i32 %7 to i64
  %9 = getelementptr inbounds [1000 x i32], [1000 x i32]* @str, i64 0, i64 %8
  %10 = tail call i32 (i8*, ...) @__isoc99_scanf(i8* getelementptr inbounds ([3 x i8], [3 x i8]* @.str.1, i64 0, i64 0), i32* nonnull %9) #4
  %11 = load i32, i32* @i, align 4, !tbaa !5
  %12 = add nsw i32 %11, 1
  store i32 %12, i32* @i, align 4, !tbaa !5
  %13 = load i32, i32* @m, align 4, !tbaa !5
  %14 = load i32, i32* @n, align 4, !tbaa !5
  %15 = add nsw i32 %14, %13
  %16 = icmp slt i32 %12, %15
  br i1 %16, label %6, label %17, !llvm.loop !9

17:                                               ; preds = %6, %0
  %18 = phi i32 [ %3, %0 ], [ %14, %6 ]
  %19 = phi i32 [ %2, %0 ], [ %13, %6 ]
  %20 = icmp sgt i32 %19, 0
  br i1 %20, label %21, label %27

21:                                               ; preds = %17
  %22 = zext i32 %19 to i64
  %23 = add nsw i64 %22, -2
  br label %39

24:                                               ; preds = %58, %134, %39
  %25 = add nuw nsw i64 %41, 1
  %26 = icmp eq i64 %42, %22
  br i1 %26, label %27, label %39, !llvm.loop !11

27:                                               ; preds = %24, %17
  %28 = add i32 %18, %19
  %29 = icmp sgt i32 %18, 0
  br i1 %29, label %30, label %113

30:                                               ; preds = %27
  %31 = sext i32 %19 to i64
  %32 = sext i32 %28 to i64
  %33 = add nsw i64 %31, 1
  %34 = icmp slt i64 %33, %32
  br i1 %34, label %35, label %113

35:                                               ; preds = %30
  %36 = add i32 %19, 1
  %37 = sext i32 %36 to i64
  %38 = add i32 %18, -2
  br label %79

39:                                               ; preds = %24, %21
  %40 = phi i64 [ 0, %21 ], [ %42, %24 ]
  %41 = phi i64 [ 1, %21 ], [ %25, %24 ]
  %42 = add nuw nsw i64 %40, 1
  %43 = getelementptr inbounds [1000 x i32], [1000 x i32]* @str, i64 0, i64 %40
  %44 = icmp ult i64 %42, %22
  br i1 %44, label %45, label %24

45:                                               ; preds = %39
  %46 = xor i64 %40, -1
  %47 = add nsw i64 %46, %22
  %48 = and i64 %47, 1
  %49 = icmp eq i64 %48, 0
  br i1 %49, label %58, label %50

50:                                               ; preds = %45
  %51 = getelementptr inbounds [1000 x i32], [1000 x i32]* @str, i64 0, i64 %41
  %52 = load i32, i32* %51, align 4, !tbaa !5
  %53 = load i32, i32* %43, align 4, !tbaa !5
  %54 = icmp slt i32 %52, %53
  br i1 %54, label %55, label %56

55:                                               ; preds = %50
  store i32 %52, i32* %43, align 4, !tbaa !5
  store i32 %53, i32* %51, align 4, !tbaa !5
  br label %56

56:                                               ; preds = %55, %50
  %57 = add nuw nsw i64 %41, 1
  br label %58

58:                                               ; preds = %56, %45
  %59 = phi i64 [ %57, %56 ], [ %41, %45 ]
  %60 = icmp eq i64 %23, %40
  br i1 %60, label %24, label %61

61:                                               ; preds = %58, %134
  %62 = phi i64 [ %135, %134 ], [ %59, %58 ]
  %63 = getelementptr inbounds [1000 x i32], [1000 x i32]* @str, i64 0, i64 %62
  %64 = load i32, i32* %63, align 4, !tbaa !5
  %65 = load i32, i32* %43, align 4, !tbaa !5
  %66 = icmp slt i32 %64, %65
  br i1 %66, label %67, label %68

67:                                               ; preds = %61
  store i32 %64, i32* %43, align 4, !tbaa !5
  store i32 %65, i32* %63, align 4, !tbaa !5
  br label %68

68:                                               ; preds = %67, %61
  %69 = add nuw nsw i64 %62, 1
  %70 = getelementptr inbounds [1000 x i32], [1000 x i32]* @str, i64 0, i64 %69
  %71 = load i32, i32* %70, align 4, !tbaa !5
  %72 = load i32, i32* %43, align 4, !tbaa !5
  %73 = icmp slt i32 %71, %72
  br i1 %73, label %133, label %134

74:                                               ; preds = %138, %97
  %75 = add nsw i64 %83, 1
  %76 = add nsw i64 %82, 1
  %77 = icmp slt i64 %76, %32
  %78 = add i32 %80, 1
  br i1 %77, label %79, label %113, !llvm.loop !12

79:                                               ; preds = %35, %74
  %80 = phi i32 [ 0, %35 ], [ %78, %74 ]
  %81 = phi i64 [ %31, %35 ], [ %82, %74 ]
  %82 = phi i64 [ %33, %35 ], [ %76, %74 ]
  %83 = phi i64 [ %37, %35 ], [ %75, %74 ]
  %84 = xor i32 %80, -1
  %85 = add i32 %18, %84
  %86 = getelementptr inbounds [1000 x i32], [1000 x i32]* @str, i64 0, i64 %81
  %87 = and i32 %85, 1
  %88 = icmp eq i32 %87, 0
  br i1 %88, label %97, label %89

89:                                               ; preds = %79
  %90 = getelementptr inbounds [1000 x i32], [1000 x i32]* @str, i64 0, i64 %83
  %91 = load i32, i32* %90, align 4, !tbaa !5
  %92 = load i32, i32* %86, align 4, !tbaa !5
  %93 = icmp slt i32 %91, %92
  br i1 %93, label %94, label %95

94:                                               ; preds = %89
  store i32 %91, i32* %86, align 4, !tbaa !5
  store i32 %92, i32* %90, align 4, !tbaa !5
  br label %95

95:                                               ; preds = %94, %89
  %96 = add nsw i64 %83, 1
  br label %97

97:                                               ; preds = %95, %79
  %98 = phi i64 [ %96, %95 ], [ %83, %79 ]
  %99 = icmp eq i32 %38, %80
  br i1 %99, label %74, label %100

100:                                              ; preds = %97, %138
  %101 = phi i64 [ %139, %138 ], [ %98, %97 ]
  %102 = getelementptr inbounds [1000 x i32], [1000 x i32]* @str, i64 0, i64 %101
  %103 = load i32, i32* %102, align 4, !tbaa !5
  %104 = load i32, i32* %86, align 4, !tbaa !5
  %105 = icmp slt i32 %103, %104
  br i1 %105, label %106, label %107

106:                                              ; preds = %100
  store i32 %103, i32* %86, align 4, !tbaa !5
  store i32 %104, i32* %102, align 4, !tbaa !5
  br label %107

107:                                              ; preds = %106, %100
  %108 = add nsw i64 %101, 1
  %109 = getelementptr inbounds [1000 x i32], [1000 x i32]* @str, i64 0, i64 %108
  %110 = load i32, i32* %109, align 4, !tbaa !5
  %111 = load i32, i32* %86, align 4, !tbaa !5
  %112 = icmp slt i32 %110, %111
  br i1 %112, label %137, label %138

113:                                              ; preds = %74, %30, %27
  %114 = load i32, i32* getelementptr inbounds ([1000 x i32], [1000 x i32]* @str, i64 0, i64 0), align 16, !tbaa !5
  %115 = tail call i32 (i8*, ...) @printf(i8* nonnull dereferenceable(1) getelementptr inbounds ([3 x i8], [3 x i8]* @.str.1, i64 0, i64 0), i32 %114) #4
  store i32 1, i32* @i, align 4, !tbaa !5
  %116 = load i32, i32* @m, align 4, !tbaa !5
  %117 = load i32, i32* @n, align 4, !tbaa !5
  %118 = add nsw i32 %117, %116
  %119 = icmp sgt i32 %118, 1
  br i1 %119, label %120, label %132

120:                                              ; preds = %113, %120
  %121 = phi i32 [ %127, %120 ], [ 1, %113 ]
  %122 = sext i32 %121 to i64
  %123 = getelementptr inbounds [1000 x i32], [1000 x i32]* @str, i64 0, i64 %122
  %124 = load i32, i32* %123, align 4, !tbaa !5
  %125 = tail call i32 (i8*, ...) @printf(i8* nonnull dereferenceable(1) getelementptr inbounds ([4 x i8], [4 x i8]* @.str.2, i64 0, i64 0), i32 %124) #4
  %126 = load i32, i32* @i, align 4, !tbaa !5
  %127 = add nsw i32 %126, 1
  store i32 %127, i32* @i, align 4, !tbaa !5
  %128 = load i32, i32* @m, align 4, !tbaa !5
  %129 = load i32, i32* @n, align 4, !tbaa !5
  %130 = add nsw i32 %129, %128
  %131 = icmp slt i32 %127, %130
  br i1 %131, label %120, label %132, !llvm.loop !15

132:                                              ; preds = %120, %113
  ret void

133:                                              ; preds = %68
  store i32 %71, i32* %43, align 4, !tbaa !5
  store i32 %72, i32* %70, align 4, !tbaa !5
  br label %134

134:                                              ; preds = %133, %68
  %135 = add nuw nsw i64 %62, 2
  %136 = icmp eq i64 %135, %22
  br i1 %136, label %24, label %61, !llvm.loop !13

137:                                              ; preds = %107
  store i32 %110, i32* %86, align 4, !tbaa !5
  store i32 %111, i32* %109, align 4, !tbaa !5
  br label %138

138:                                              ; preds = %137, %107
  %139 = add nsw i64 %101, 2
  %140 = trunc i64 %139 to i32
  %141 = icmp eq i32 %28, %140
  br i1 %141, label %74, label %100, !llvm.loop !14
}